target datalayout = "e-m:e-p270:32:32-p271:32:32-p272:64:64-i64:64-i128:128-f80:128-n8:16:32:64-S128"
target triple = "x86_64-pc-linux-gnu"

%struct.evp_pkey_st = type { i32, i32, ptr, ptr, ptr, %union.legacy_pkey_st, %union.legacy_pkey_st, %struct.CRYPTO_REF_COUNT, ptr, ptr, i32, i8, %struct.crypto_ex_data_st, ptr, ptr, i64, ptr, i64, %struct.anon }
%union.legacy_pkey_st = type { ptr }
%struct.CRYPTO_REF_COUNT = type { i32 }
%struct.crypto_ex_data_st = type { ptr, ptr }
%struct.anon = type { i32, i32, i32 }
%struct.evp_pkey_asn1_method_st = type { i32, i32, i64, ptr, ptr, ptr, ptr, ptr, ptr, ptr, ptr, ptr, ptr, ptr, ptr, ptr, ptr, ptr, ptr, ptr, ptr, ptr, ptr, ptr, ptr, ptr, ptr, ptr, ptr, ptr, ptr, ptr, ptr, ptr, ptr, ptr, ptr, ptr, ptr, ptr, ptr }

; Function Attrs: nounwind uwtable
define internal i32 @evp_pkey_asn1_ctrl(ptr noundef %0, i32 noundef %1, i32 noundef %2, ptr noundef %3) #0 {
  %5 = alloca i32, align 4
  %6 = alloca ptr, align 8
  %7 = alloca i32, align 4
  %8 = alloca i32, align 4
  %9 = alloca ptr, align 8
  store ptr %0, ptr %6, align 8, !tbaa !3
  store i32 %1, ptr %7, align 4, !tbaa !8
  store i32 %2, ptr %8, align 4, !tbaa !8
  store ptr %3, ptr %9, align 8, !tbaa !31
  %10 = load ptr, ptr %6, align 8, !tbaa !3
  %11 = getelementptr inbounds nuw %struct.evp_pkey_st, ptr %10, i32 0, i32 2
  %12 = load ptr, ptr %11, align 8, !tbaa !23
  %13 = icmp eq ptr %12, null
  br i1 %13, label %14, label %20

14:                                               ; preds = %4
  %15 = load ptr, ptr %6, align 8, !tbaa !3
  %16 = load i32, ptr %7, align 4, !tbaa !8
  %17 = load i32, ptr %8, align 4, !tbaa !8
  %18 = load ptr, ptr %9, align 8, !tbaa !31
  %19 = call i32 @legacy_asn1_ctrl_to_param(ptr noundef %15, i32 noundef %16, i32 noundef %17, ptr noundef %18)
  store i32 %19, ptr %5, align 4
  br label %40

20:                                               ; preds = %4
  %21 = load ptr, ptr %6, align 8, !tbaa !3
  %22 = getelementptr inbounds nuw %struct.evp_pkey_st, ptr %21, i32 0, i32 2
  %23 = load ptr, ptr %22, align 8, !tbaa !23
  %24 = getelementptr inbounds nuw %struct.evp_pkey_asn1_method_st, ptr %23, i32 0, i32 23
  %25 = load ptr, ptr %24, align 8, !tbaa !130
  %26 = icmp eq ptr %25, null
  br i1 %26, label %27, label %28

27:                                               ; preds = %20
  store i32 -2, ptr %5, align 4
  br label %40

28:                                               ; preds = %20
  %29 = load ptr, ptr %6, align 8, !tbaa !3
  %30 = getelementptr inbounds nuw %struct.evp_pkey_st, ptr %29, i32 0, i32 2
  %31 = load ptr, ptr %30, align 8, !tbaa !23
  %32 = getelementptr inbounds nuw %struct.evp_pkey_asn1_method_st, ptr %31, i32 0, i32 23
  %33 = load ptr, ptr %32, align 8, !tbaa !130
  %34 = load ptr, ptr %6, align 8, !tbaa !3
  %35 = load i32, ptr %7, align 4, !tbaa !8
  %36 = load i32, ptr %8, align 4, !tbaa !8
  %37 = sext i32 %36 to i64
  %38 = load ptr, ptr %9, align 8, !tbaa !31
  %39 = call i32 %33(ptr noundef %34, i32 noundef %35, i64 noundef %37, ptr noundef %38)
  store i32 %39, ptr %5, align 4
  br label %40

40:                                               ; preds = %28, %27, %14
  %41 = load i32, ptr %5, align 4
  ret i32 %41
}

; Function Attrs: nounwind uwtable
define i32 @EVP_PKEY_get_default_digest_nid(ptr noundef %0, ptr noundef %1) #0 {
  %3 = alloca i32, align 4
  %4 = alloca ptr, align 8
  %5 = alloca ptr, align 8
  store ptr %0, ptr %4, align 8, !tbaa !3
  store ptr %1, ptr %5, align 8, !tbaa !129
  %6 = load ptr, ptr %4, align 8, !tbaa !3
  %7 = icmp eq ptr %6, null
  br i1 %7, label %8, label %9

8:                                                ; preds = %2
  store i32 0, ptr %3, align 4
  br label %13

9:                                                ; preds = %2
  %10 = load ptr, ptr %4, align 8, !tbaa !3
  %11 = load ptr, ptr %5, align 8, !tbaa !129
  %12 = call i32 @evp_pkey_asn1_ctrl(ptr noundef %10, i32 noundef 3, i32 noundef 0, ptr noundef %11)
  store i32 %12, ptr %3, align 4
  br label %13

13:                                               ; preds = %9, %8
  %14 = load i32, ptr %3, align 4
  ret i32 %14
}