; Function Attrs: nounwind uwtable
define i32 @EVP_PKEY_get_default_digest_nid(ptr noundef %0, ptr noundef %1) local_unnamed_addr #0 {
  %3 = icmp eq ptr %0, null
  br i1 %3, label %evp_pkey_asn1_ctrl.exit, label %4

4:                                                ; preds = %2
  %5 = getelementptr inbounds nuw i8, ptr %0, i64 8
  %6 = load ptr, ptr %5, align 8, !tbaa !20
  %7 = icmp eq ptr %6, null
  br i1 %7, label %8, label %10

8:                                                ; preds = %4
  %9 = tail call fastcc i32 @legacy_asn1_ctrl_to_param(ptr noundef nonnull %0, i32 noundef 3, ptr noundef %1)
  br label %evp_pkey_asn1_ctrl.exit

10:                                               ; preds = %4
  %11 = getelementptr inbounds nuw i8, ptr %6, i64 176
  %12 = load ptr, ptr %11, align 8, !tbaa !94
  %13 = icmp eq ptr %12, null
  br i1 %13, label %evp_pkey_asn1_ctrl.exit, label %14

14:                                               ; preds = %10
  %15 = tail call i32 %12(ptr noundef nonnull %0, i32 noundef 3, i64 noundef 0, ptr noundef %1) #12
  br label %evp_pkey_asn1_ctrl.exit

evp_pkey_asn1_ctrl.exit:                          ; preds = %14, %10, %8, %2
  %.0 = phi i32 [ 0, %2 ], [ %9, %8 ], [ %15, %14 ], [ -2, %10 ]
  ret i32 %.0
}